target datalayout = "e-m:e-p270:32:32-p271:32:32-p272:64:64-i64:64-i128:128-f80:128-n8:16:32:64-S128"
target triple = "x86_64-pc-linux-gnu"

%struct.AVFilterContext = type { ptr, ptr, ptr, ptr, ptr, i32, ptr, ptr, i32, ptr, ptr, i32, i32, ptr, ptr, ptr, ptr, i32, ptr, i32, i32 }
%struct.CompandContext = type { ptr, i32, ptr, ptr, ptr, ptr, ptr, double, double, double, double, double, double, ptr, i32, i32, i32, i64, ptr }
%struct.AVFilterLink = type { ptr, ptr, ptr, ptr, i32, i32, i32, i32, %struct.AVRational, i32, i32, i32, %struct.AVChannelLayout, %struct.AVRational, ptr, i32, %struct.AVFilterFormatsConfig, %struct.AVFilterFormatsConfig }
%struct.AVChannelLayout = type { i32, i32, %union.anon.1, ptr }
%union.anon.1 = type { i64 }
%struct.AVRational = type { i32, i32 }
%struct.AVFilterFormatsConfig = type { ptr, ptr, ptr, ptr, ptr }

; Function Attrs: nounwind uwtable
define internal i32 @filter_frame(ptr noundef %0, ptr noundef %1) #1 {
  %3 = alloca ptr, align 8
  %4 = alloca ptr, align 8
  %5 = alloca ptr, align 8
  %6 = alloca ptr, align 8
  store ptr %0, ptr %3, align 8, !tbaa !31
  store ptr %1, ptr %4, align 8, !tbaa !33
  call void @llvm.lifetime.start.p0(i64 8, ptr %5) #10
  %7 = load ptr, ptr %3, align 8, !tbaa !31
  %8 = getelementptr inbounds nuw %struct.AVFilterLink, ptr %7, i32 0, i32 2
  %9 = load ptr, ptr %8, align 8, !tbaa !34
  store ptr %9, ptr %5, align 8, !tbaa !4
  call void @llvm.lifetime.start.p0(i64 8, ptr %6) #10
  %10 = load ptr, ptr %5, align 8, !tbaa !4
  %11 = getelementptr inbounds nuw %struct.AVFilterContext, ptr %10, i32 0, i32 9
  %12 = load ptr, ptr %11, align 8, !tbaa !9
  store ptr %12, ptr %6, align 8, !tbaa !22
  %13 = load ptr, ptr %6, align 8, !tbaa !22
  %14 = getelementptr inbounds nuw %struct.CompandContext, ptr %13, i32 0, i32 18
  %15 = load ptr, ptr %14, align 8, !tbaa !42
  %16 = load ptr, ptr %5, align 8, !tbaa !4
  %17 = load ptr, ptr %4, align 8, !tbaa !33
  %18 = call i32 %15(ptr noundef %16, ptr noundef %17)
  call void @llvm.lifetime.end.p0(i64 8, ptr %6) #10
  call void @llvm.lifetime.end.p0(i64 8, ptr %5) #10
  ret i32 %18
}